target datalayout = "e-m:e-p270:32:32-p271:32:32-p272:64:64-i64:64-i128:128-f80:128-n8:16:32:64-S128"
target triple = "x86_64-pc-linux-gnu"

%struct.prov_rc4_hmac_md5_ctx_st = type { %struct.prov_cipher_ctx_st, %union.anon.0, %struct.MD5state_st, %struct.MD5state_st, %struct.MD5state_st, i64, i64 }
%struct.prov_cipher_ctx_st = type { [16 x i8], [16 x i8], [16 x i8], ptr, %union.anon, i32, i64, i64, i64, i64, i32, i8, i32, ptr, i32, i64, i32, i64, i32, ptr, ptr, ptr }
%union.anon = type { ptr }
%union.anon.0 = type { double, [1024 x i8] }
%struct.MD5state_st = type { i32, i32, i32, i32, i32, i32, [16 x i32], i32 }

; Function Attrs: nounwind uwtable
define internal void @cipher_hw_rc4_hmac_md5_init_mackey(ptr noundef %0, ptr noundef %1, i64 noundef %2) #0 {
  %4 = alloca ptr, align 8
  %5 = alloca ptr, align 8
  %6 = alloca i64, align 8
  %7 = alloca ptr, align 8
  %8 = alloca i32, align 4
  %9 = alloca [64 x i8], align 16
  store ptr %0, ptr %4, align 8, !tbaa !7
  store ptr %1, ptr %5, align 8, !tbaa !10
  store i64 %2, ptr %6, align 8, !tbaa !3
  call void @llvm.lifetime.start.p0(i64 8, ptr %7) #5
  %10 = load ptr, ptr %4, align 8, !tbaa !7
  store ptr %10, ptr %7, align 8, !tbaa !12
  call void @llvm.lifetime.start.p0(i64 4, ptr %8) #5
  call void @llvm.lifetime.start.p0(i64 64, ptr %9) #5
  %11 = getelementptr inbounds [64 x i8], ptr %9, i64 0, i64 0
  call void @llvm.memset.p0.i64(ptr align 16 %11, i8 0, i64 64, i1 false)
  %12 = load i64, ptr %6, align 8, !tbaa !3
  %13 = icmp ugt i64 %12, 64
  br i1 %13, label %14, label %27

14:                                               ; preds = %3
  %15 = load ptr, ptr %7, align 8, !tbaa !12
  %16 = getelementptr inbounds nuw %struct.prov_rc4_hmac_md5_ctx_st, ptr %15, i32 0, i32 2
  %17 = call i32 @MD5_Init(ptr noundef %16)
  %18 = load ptr, ptr %7, align 8, !tbaa !12
  %19 = getelementptr inbounds nuw %struct.prov_rc4_hmac_md5_ctx_st, ptr %18, i32 0, i32 2
  %20 = load ptr, ptr %5, align 8, !tbaa !10
  %21 = load i64, ptr %6, align 8, !tbaa !3
  %22 = call i32 @MD5_Update(ptr noundef %19, ptr noundef %20, i64 noundef %21)
  %23 = getelementptr inbounds [64 x i8], ptr %9, i64 0, i64 0
  %24 = load ptr, ptr %7, align 8, !tbaa !12
  %25 = getelementptr inbounds nuw %struct.prov_rc4_hmac_md5_ctx_st, ptr %24, i32 0, i32 2
  %26 = call i32 @MD5_Final(ptr noundef %23, ptr noundef %25)
  br label %31

27:                                               ; preds = %3
  %28 = getelementptr inbounds [64 x i8], ptr %9, i64 0, i64 0
  %29 = load ptr, ptr %5, align 8, !tbaa !10
  %30 = load i64, ptr %6, align 8, !tbaa !3
  call void @llvm.memcpy.p0.p0.i64(ptr align 16 %28, ptr align 1 %29, i64 %30, i1 false)
  br label %31

31:                                               ; preds = %27, %14
  store i32 0, ptr %8, align 4, !tbaa !15
  br label %32

32:                                               ; preds = %44, %31
  %33 = load i32, ptr %8, align 4, !tbaa !15
  %34 = zext i32 %33 to i64
  %35 = icmp ult i64 %34, 64
  br i1 %35, label %36, label %47

36:                                               ; preds = %32
  %37 = load i32, ptr %8, align 4, !tbaa !15
  %38 = zext i32 %37 to i64
  %39 = getelementptr inbounds nuw [64 x i8], ptr %9, i64 0, i64 %38
  %40 = load i8, ptr %39, align 1, !tbaa !17
  %41 = zext i8 %40 to i32
  %42 = xor i32 %41, 54
  %43 = trunc i32 %42 to i8
  store i8 %43, ptr %39, align 1, !tbaa !17
  br label %44

44:                                               ; preds = %36
  %45 = load i32, ptr %8, align 4, !tbaa !15
  %46 = add i32 %45, 1
  store i32 %46, ptr %8, align 4, !tbaa !15
  br label %32, !llvm.loop !32

47:                                               ; preds = %32
  %48 = load ptr, ptr %7, align 8, !tbaa !12
  %49 = getelementptr inbounds nuw %struct.prov_rc4_hmac_md5_ctx_st, ptr %48, i32 0, i32 2
  %50 = call i32 @MD5_Init(ptr noundef %49)
  %51 = load ptr, ptr %7, align 8, !tbaa !12
  %52 = getelementptr inbounds nuw %struct.prov_rc4_hmac_md5_ctx_st, ptr %51, i32 0, i32 2
  %53 = getelementptr inbounds [64 x i8], ptr %9, i64 0, i64 0
  %54 = call i32 @MD5_Update(ptr noundef %52, ptr noundef %53, i64 noundef 64)
  store i32 0, ptr %8, align 4, !tbaa !15
  br label %55

55:                                               ; preds = %67, %47
  %56 = load i32, ptr %8, align 4, !tbaa !15
  %57 = zext i32 %56 to i64
  %58 = icmp ult i64 %57, 64
  br i1 %58, label %59, label %70

59:                                               ; preds = %55
  %60 = load i32, ptr %8, align 4, !tbaa !15
  %61 = zext i32 %60 to i64
  %62 = getelementptr inbounds nuw [64 x i8], ptr %9, i64 0, i64 %61
  %63 = load i8, ptr %62, align 1, !tbaa !17
  %64 = zext i8 %63 to i32
  %65 = xor i32 %64, 106
  %66 = trunc i32 %65 to i8
  store i8 %66, ptr %62, align 1, !tbaa !17
  br label %67

67:                                               ; preds = %59
  %68 = load i32, ptr %8, align 4, !tbaa !15
  %69 = add i32 %68, 1
  store i32 %69, ptr %8, align 4, !tbaa !15
  br label %55, !llvm.loop !34

70:                                               ; preds = %55
  %71 = load ptr, ptr %7, align 8, !tbaa !12
  %72 = getelementptr inbounds nuw %struct.prov_rc4_hmac_md5_ctx_st, ptr %71, i32 0, i32 3
  %73 = call i32 @MD5_Init(ptr noundef %72)
  %74 = load ptr, ptr %7, align 8, !tbaa !12
  %75 = getelementptr inbounds nuw %struct.prov_rc4_hmac_md5_ctx_st, ptr %74, i32 0, i32 3
  %76 = getelementptr inbounds [64 x i8], ptr %9, i64 0, i64 0
  %77 = call i32 @MD5_Update(ptr noundef %75, ptr noundef %76, i64 noundef 64)
  %78 = getelementptr inbounds [64 x i8], ptr %9, i64 0, i64 0
  call void @OPENSSL_cleanse(ptr noundef %78, i64 noundef 64)
  call void @llvm.lifetime.end.p0(i64 64, ptr %9) #5
  call void @llvm.lifetime.end.p0(i64 4, ptr %8) #5
  call void @llvm.lifetime.end.p0(i64 8, ptr %7) #5
  ret void
}