; Function Attrs: nounwind uwtable
define internal void @cipher_hw_rc4_hmac_md5_init_mackey(ptr noundef %0, ptr noundef %1, i64 noundef %2) #1 {
  %4 = alloca [64 x i8], align 16
  call void @llvm.lifetime.start.p0(i64 64, ptr nonnull %4) #6
  call void @llvm.memset.p0.i64(ptr noundef nonnull align 16 dereferenceable(64) %4, i8 0, i64 64, i1 false)
  %5 = icmp ugt i64 %2, 64
  br i1 %5, label %6, label %11

6:                                                ; preds = %3
  %7 = getelementptr inbounds nuw i8, ptr %0, i64 1224
  %8 = tail call i32 @MD5_Init(ptr noundef nonnull %7) #6
  %9 = tail call i32 @MD5_Update(ptr noundef nonnull %7, ptr noundef %1, i64 noundef %2) #6
  %10 = call i32 @MD5_Final(ptr noundef nonnull %4, ptr noundef nonnull %7) #6
  br label %.preheader

11:                                               ; preds = %3
  call void @llvm.memcpy.p0.p0.i64(ptr nonnull align 16 %4, ptr align 1 %1, i64 %2, i1 false)
  br label %.preheader

.preheader:                                       ; preds = %11, %6
  br label %12

12:                                               ; preds = %.preheader, %12
  %indvars.iv = phi i64 [ %indvars.iv.next, %12 ], [ 0, %.preheader ]
  %13 = getelementptr inbounds nuw [64 x i8], ptr %4, i64 0, i64 %indvars.iv
  %14 = load i8, ptr %13, align 1, !tbaa !8
  %15 = xor i8 %14, 54
  store i8 %15, ptr %13, align 1, !tbaa !8
  %indvars.iv.next = add nuw nsw i64 %indvars.iv, 1
  %exitcond.not = icmp eq i64 %indvars.iv.next, 64
  br i1 %exitcond.not, label %16, label %12, !llvm.loop !24

16:                                               ; preds = %12
  %17 = getelementptr inbounds nuw i8, ptr %0, i64 1224
  %18 = call i32 @MD5_Init(ptr noundef nonnull %17) #6
  %19 = call i32 @MD5_Update(ptr noundef nonnull %17, ptr noundef nonnull %4, i64 noundef 64) #6
  br label %20

20:                                               ; preds = %16, %20
  %indvars.iv25 = phi i64 [ 0, %16 ], [ %indvars.iv.next26, %20 ]
  %21 = getelementptr inbounds nuw [64 x i8], ptr %4, i64 0, i64 %indvars.iv25
  %22 = load i8, ptr %21, align 1, !tbaa !8
  %23 = xor i8 %22, 106
  store i8 %23, ptr %21, align 1, !tbaa !8
  %indvars.iv.next26 = add nuw nsw i64 %indvars.iv25, 1
  %exitcond28.not = icmp eq i64 %indvars.iv.next26, 64
  br i1 %exitcond28.not, label %24, label %20, !llvm.loop !26

24:                                               ; preds = %20
  %25 = getelementptr inbounds nuw i8, ptr %0, i64 1316
  %26 = call i32 @MD5_Init(ptr noundef nonnull %25) #6
  %27 = call i32 @MD5_Update(ptr noundef nonnull %25, ptr noundef nonnull %4, i64 noundef 64) #6
  call void @OPENSSL_cleanse(ptr noundef nonnull %4, i64 noundef 64) #6
  call void @llvm.lifetime.end.p0(i64 64, ptr nonnull %4) #6
  ret void
}